target datalayout = "e-m:e-p270:32:32-p271:32:32-p272:64:64-i64:64-i128:128-f80:128-n8:16:32:64-S128"
target triple = "x86_64-pc-linux-gnu"

%"class.gmx::AtomsBuilder" = type { ptr, ptr, i32, i32, i32, i32 }
%struct.t_atoms = type { i32, ptr, ptr, ptr, ptr, i32, ptr, ptr, i8, i8, i8, i8, i8 }
%struct.t_resinfo = type { ptr, i32, i8, i32, i8, ptr }
%struct.t_atom = type { float, float, float, float, i16, i16, i32, i32, i32, [4 x i8] }
%struct.t_pdbinfo = type { i32, i32, i8, [6 x i8], float, float, i8, [6 x i32] }

; Function Attrs: mustprogress uwtable
define noundef ptr @_ZN3gmx12AtomsBuilder12symtabStringEPPc(ptr noundef nonnull align 8 dereferenceable(32) %0, ptr noundef %1) #1 align 2 {
  %3 = alloca ptr, align 8
  %4 = alloca ptr, align 8
  %5 = alloca ptr, align 8
  store ptr %0, ptr %4, align 8, !tbaa !4
  store ptr %1, ptr %5, align 8, !tbaa !35
  %6 = load ptr, ptr %4, align 8
  %7 = getelementptr inbounds nuw %"class.gmx::AtomsBuilder", ptr %6, i32 0, i32 1
  %8 = load ptr, ptr %7, align 8, !tbaa !16
  %9 = icmp ne ptr %8, null
  br i1 %9, label %10, label %16

10:                                               ; preds = %2
  %11 = getelementptr inbounds nuw %"class.gmx::AtomsBuilder", ptr %6, i32 0, i32 1
  %12 = load ptr, ptr %11, align 8, !tbaa !16
  %13 = load ptr, ptr %5, align 8, !tbaa !35
  %14 = load ptr, ptr %13, align 8, !tbaa !36
  %15 = call noundef ptr @_Z10put_symtabP8t_symtabPKc(ptr noundef %12, ptr noundef %14)
  store ptr %15, ptr %3, align 8
  br label %18

16:                                               ; preds = %2
  %17 = load ptr, ptr %5, align 8, !tbaa !35
  store ptr %17, ptr %3, align 8
  br label %18

18:                                               ; preds = %16, %10
  %19 = load ptr, ptr %3, align 8
  ret ptr %19
}

; Function Attrs: mustprogress uwtable
define void @_ZN3gmx12AtomsBuilder7addAtomERK7t_atomsi(ptr noundef nonnull align 8 dereferenceable(32) %0, ptr noundef nonnull align 8 dereferenceable(72) %1, i32 noundef %2) #1 align 2 {
  %4 = alloca ptr, align 8
  %5 = alloca ptr, align 8
  %6 = alloca i32, align 4
  %7 = alloca i32, align 4
  store ptr %0, ptr %4, align 8, !tbaa !4
  store ptr %1, ptr %5, align 8, !tbaa !9
  store i32 %2, ptr %6, align 4, !tbaa !38
  %8 = load ptr, ptr %4, align 8
  call void @llvm.lifetime.start.p0(i64 4, ptr %7) #13
  %9 = getelementptr inbounds nuw %"class.gmx::AtomsBuilder", ptr %8, i32 0, i32 0
  %10 = load ptr, ptr %9, align 8, !tbaa !13
  %11 = getelementptr inbounds nuw %struct.t_atoms, ptr %10, i32 0, i32 0
  %12 = load i32, ptr %11, align 8, !tbaa !17
  store i32 %12, ptr %7, align 4, !tbaa !38
  %13 = load ptr, ptr %5, align 8, !tbaa !9
  %14 = getelementptr inbounds nuw %struct.t_atoms, ptr %13, i32 0, i32 1
  %15 = load ptr, ptr %14, align 8, !tbaa !55
  %16 = load i32, ptr %6, align 4, !tbaa !38
  %17 = sext i32 %16 to i64
  %18 = getelementptr inbounds %struct.t_atom, ptr %15, i64 %17
  %19 = getelementptr inbounds nuw %"class.gmx::AtomsBuilder", ptr %8, i32 0, i32 0
  %20 = load ptr, ptr %19, align 8, !tbaa !13
  %21 = getelementptr inbounds nuw %struct.t_atoms, ptr %20, i32 0, i32 1
  %22 = load ptr, ptr %21, align 8, !tbaa !55
  %23 = load i32, ptr %7, align 4, !tbaa !38
  %24 = sext i32 %23 to i64
  %25 = getelementptr inbounds %struct.t_atom, ptr %22, i64 %24
  call void @llvm.memcpy.p0.p0.i64(ptr align 4 %25, ptr align 4 %18, i64 36, i1 false), !tbaa.struct !56
  %26 = load ptr, ptr %5, align 8, !tbaa !9
  %27 = getelementptr inbounds nuw %struct.t_atoms, ptr %26, i32 0, i32 2
  %28 = load ptr, ptr %27, align 8, !tbaa !64
  %29 = load i32, ptr %6, align 4, !tbaa !38
  %30 = sext i32 %29 to i64
  %31 = getelementptr inbounds ptr, ptr %28, i64 %30
  %32 = load ptr, ptr %31, align 8, !tbaa !35
  %33 = call noundef ptr @_ZN3gmx12AtomsBuilder12symtabStringEPPc(ptr noundef nonnull align 8 dereferenceable(32) %8, ptr noundef %32)
  %34 = getelementptr inbounds nuw %"class.gmx::AtomsBuilder", ptr %8, i32 0, i32 0
  %35 = load ptr, ptr %34, align 8, !tbaa !13
  %36 = getelementptr inbounds nuw %struct.t_atoms, ptr %35, i32 0, i32 2
  %37 = load ptr, ptr %36, align 8, !tbaa !64
  %38 = load i32, ptr %7, align 4, !tbaa !38
  %39 = sext i32 %38 to i64
  %40 = getelementptr inbounds ptr, ptr %37, i64 %39
  store ptr %33, ptr %40, align 8, !tbaa !35
  %41 = getelementptr inbounds nuw %"class.gmx::AtomsBuilder", ptr %8, i32 0, i32 4
  %42 = load i32, ptr %41, align 8, !tbaa !29
  %43 = getelementptr inbounds nuw %"class.gmx::AtomsBuilder", ptr %8, i32 0, i32 0
  %44 = load ptr, ptr %43, align 8, !tbaa !13
  %45 = getelementptr inbounds nuw %struct.t_atoms, ptr %44, i32 0, i32 1
  %46 = load ptr, ptr %45, align 8, !tbaa !55
  %47 = load i32, ptr %7, align 4, !tbaa !38
  %48 = sext i32 %47 to i64
  %49 = getelementptr inbounds %struct.t_atom, ptr %46, i64 %48
  %50 = getelementptr inbounds nuw %struct.t_atom, ptr %49, i32 0, i32 7
  store i32 %42, ptr %50, align 4, !tbaa !65
  %51 = getelementptr inbounds nuw %"class.gmx::AtomsBuilder", ptr %8, i32 0, i32 0
  %52 = load ptr, ptr %51, align 8, !tbaa !13
  %53 = getelementptr inbounds nuw %struct.t_atoms, ptr %52, i32 0, i32 7
  %54 = load ptr, ptr %53, align 8, !tbaa !39
  %55 = icmp ne ptr %54, null
  br i1 %55, label %56, label %84

56:                                               ; preds = %3
  %57 = load ptr, ptr %5, align 8, !tbaa !9
  %58 = getelementptr inbounds nuw %struct.t_atoms, ptr %57, i32 0, i32 7
  %59 = load ptr, ptr %58, align 8, !tbaa !39
  %60 = icmp ne ptr %59, null
  br i1 %60, label %61, label %75

61:                                               ; preds = %56
  %62 = load ptr, ptr %5, align 8, !tbaa !9
  %63 = getelementptr inbounds nuw %struct.t_atoms, ptr %62, i32 0, i32 7
  %64 = load ptr, ptr %63, align 8, !tbaa !39
  %65 = load i32, ptr %6, align 4, !tbaa !38
  %66 = sext i32 %65 to i64
  %67 = getelementptr inbounds %struct.t_pdbinfo, ptr %64, i64 %66
  %68 = getelementptr inbounds nuw %"class.gmx::AtomsBuilder", ptr %8, i32 0, i32 0
  %69 = load ptr, ptr %68, align 8, !tbaa !13
  %70 = getelementptr inbounds nuw %struct.t_atoms, ptr %69, i32 0, i32 7
  %71 = load ptr, ptr %70, align 8, !tbaa !39
  %72 = load i32, ptr %7, align 4, !tbaa !38
  %73 = sext i32 %72 to i64
  %74 = getelementptr inbounds %struct.t_pdbinfo, ptr %71, i64 %73
  call void @llvm.memcpy.p0.p0.i64(ptr align 4 %74, ptr align 4 %67, i64 52, i1 false), !tbaa.struct !67
  br label %83

75:                                               ; preds = %56
  %76 = getelementptr inbounds nuw %"class.gmx::AtomsBuilder", ptr %8, i32 0, i32 0
  %77 = load ptr, ptr %76, align 8, !tbaa !13
  %78 = getelementptr inbounds nuw %struct.t_atoms, ptr %77, i32 0, i32 7
  %79 = load ptr, ptr %78, align 8, !tbaa !39
  %80 = load i32, ptr %7, align 4, !tbaa !38
  %81 = sext i32 %80 to i64
  %82 = getelementptr inbounds %struct.t_pdbinfo, ptr %79, i64 %81
  call void @_Z24gmx_pdbinfo_init_defaultP9t_pdbinfo(ptr noundef %82)
  br label %83

83:                                               ; preds = %75, %61
  br label %84

84:                                               ; preds = %83, %3
  %85 = getelementptr inbounds nuw %"class.gmx::AtomsBuilder", ptr %8, i32 0, i32 0
  %86 = load ptr, ptr %85, align 8, !tbaa !13
  %87 = getelementptr inbounds nuw %struct.t_atoms, ptr %86, i32 0, i32 0
  %88 = load i32, ptr %87, align 8, !tbaa !17
  %89 = add nsw i32 %88, 1
  store i32 %89, ptr %87, align 8, !tbaa !17
  call void @llvm.lifetime.end.p0(i64 4, ptr %7) #13
  ret void
}

; Function Attrs: mustprogress uwtable
define void @_ZN3gmx12AtomsBuilder12startResidueERK9t_resinfo(ptr noundef nonnull align 8 dereferenceable(32) %0, ptr noundef nonnull align 8 dereferenceable(32) %1) #1 align 2 {
  %3 = alloca ptr, align 8
  %4 = alloca ptr, align 8
  %5 = alloca i32, align 4
  store ptr %0, ptr %3, align 8, !tbaa !4
  store ptr %1, ptr %4, align 8, !tbaa !51
  %6 = load ptr, ptr %3, align 8
  %7 = getelementptr inbounds nuw %"class.gmx::AtomsBuilder", ptr %6, i32 0, i32 5
  %8 = load i32, ptr %7, align 4, !tbaa !30
  %9 = icmp eq i32 %8, -1
  br i1 %9, label %10, label %15

10:                                               ; preds = %2
  %11 = load ptr, ptr %4, align 8, !tbaa !51
  %12 = getelementptr inbounds nuw %struct.t_resinfo, ptr %11, i32 0, i32 1
  %13 = load i32, ptr %12, align 8, !tbaa !32
  %14 = getelementptr inbounds nuw %"class.gmx::AtomsBuilder", ptr %6, i32 0, i32 5
  store i32 %13, ptr %14, align 4, !tbaa !30
  br label %15

15:                                               ; preds = %10, %2
  call void @llvm.lifetime.start.p0(i64 4, ptr %5) #13
  %16 = getelementptr inbounds nuw %"class.gmx::AtomsBuilder", ptr %6, i32 0, i32 0
  %17 = load ptr, ptr %16, align 8, !tbaa !13
  %18 = getelementptr inbounds nuw %struct.t_atoms, ptr %17, i32 0, i32 5
  %19 = load i32, ptr %18, align 8, !tbaa !27
  store i32 %19, ptr %5, align 4, !tbaa !38
  %20 = load ptr, ptr %4, align 8, !tbaa !51
  %21 = getelementptr inbounds nuw %"class.gmx::AtomsBuilder", ptr %6, i32 0, i32 0
  %22 = load ptr, ptr %21, align 8, !tbaa !13
  %23 = getelementptr inbounds nuw %struct.t_atoms, ptr %22, i32 0, i32 6
  %24 = load ptr, ptr %23, align 8, !tbaa !31
  %25 = load i32, ptr %5, align 4, !tbaa !38
  %26 = sext i32 %25 to i64
  %27 = getelementptr inbounds %struct.t_resinfo, ptr %24, i64 %26
  call void @llvm.memcpy.p0.p0.i64(ptr align 8 %27, ptr align 8 %20, i64 32, i1 false), !tbaa.struct !71
  %28 = getelementptr inbounds nuw %"class.gmx::AtomsBuilder", ptr %6, i32 0, i32 5
  %29 = load i32, ptr %28, align 4, !tbaa !30
  %30 = getelementptr inbounds nuw %"class.gmx::AtomsBuilder", ptr %6, i32 0, i32 0
  %31 = load ptr, ptr %30, align 8, !tbaa !13
  %32 = getelementptr inbounds nuw %struct.t_atoms, ptr %31, i32 0, i32 6
  %33 = load ptr, ptr %32, align 8, !tbaa !31
  %34 = load i32, ptr %5, align 4, !tbaa !38
  %35 = sext i32 %34 to i64
  %36 = getelementptr inbounds %struct.t_resinfo, ptr %33, i64 %35
  %37 = getelementptr inbounds nuw %struct.t_resinfo, ptr %36, i32 0, i32 1
  store i32 %29, ptr %37, align 8, !tbaa !32
  %38 = load ptr, ptr %4, align 8, !tbaa !51
  %39 = getelementptr inbounds nuw %struct.t_resinfo, ptr %38, i32 0, i32 0
  %40 = load ptr, ptr %39, align 8, !tbaa !72
  %41 = call noundef ptr @_ZN3gmx12AtomsBuilder12symtabStringEPPc(ptr noundef nonnull align 8 dereferenceable(32) %6, ptr noundef %40)
  %42 = getelementptr inbounds nuw %"class.gmx::AtomsBuilder", ptr %6, i32 0, i32 0
  %43 = load ptr, ptr %42, align 8, !tbaa !13
  %44 = getelementptr inbounds nuw %struct.t_atoms, ptr %43, i32 0, i32 6
  %45 = load ptr, ptr %44, align 8, !tbaa !31
  %46 = load i32, ptr %5, align 4, !tbaa !38
  %47 = sext i32 %46 to i64
  %48 = getelementptr inbounds %struct.t_resinfo, ptr %45, i64 %47
  %49 = getelementptr inbounds nuw %struct.t_resinfo, ptr %48, i32 0, i32 0
  store ptr %41, ptr %49, align 8, !tbaa !72
  %50 = getelementptr inbounds nuw %"class.gmx::AtomsBuilder", ptr %6, i32 0, i32 5
  %51 = load i32, ptr %50, align 4, !tbaa !30
  %52 = add nsw i32 %51, 1
  store i32 %52, ptr %50, align 4, !tbaa !30
  %53 = load i32, ptr %5, align 4, !tbaa !38
  %54 = getelementptr inbounds nuw %"class.gmx::AtomsBuilder", ptr %6, i32 0, i32 4
  store i32 %53, ptr %54, align 8, !tbaa !29
  %55 = getelementptr inbounds nuw %"class.gmx::AtomsBuilder", ptr %6, i32 0, i32 0
  %56 = load ptr, ptr %55, align 8, !tbaa !13
  %57 = getelementptr inbounds nuw %struct.t_atoms, ptr %56, i32 0, i32 5
  %58 = load i32, ptr %57, align 8, !tbaa !27
  %59 = add nsw i32 %58, 1
  store i32 %59, ptr %57, align 8, !tbaa !27
  call void @llvm.lifetime.end.p0(i64 4, ptr %5) #13
  ret void
}

; Function Attrs: mustprogress uwtable
define void @_ZN3gmx12AtomsBuilder10mergeAtomsERK7t_atoms(ptr noundef nonnull align 8 dereferenceable(32) %0, ptr noundef nonnull align 8 dereferenceable(72) %1) #1 align 2 {
  %3 = alloca ptr, align 8
  %4 = alloca ptr, align 8
  %5 = alloca i32, align 4
  %6 = alloca i32, align 4
  %7 = alloca i32, align 4
  store ptr %0, ptr %3, align 8, !tbaa !4
  store ptr %1, ptr %4, align 8, !tbaa !9
  %8 = load ptr, ptr %3, align 8
  %9 = getelementptr inbounds nuw %"class.gmx::AtomsBuilder", ptr %8, i32 0, i32 0
  %10 = load ptr, ptr %9, align 8, !tbaa !13
  %11 = getelementptr inbounds nuw %struct.t_atoms, ptr %10, i32 0, i32 0
  %12 = load i32, ptr %11, align 8, !tbaa !17
  %13 = load ptr, ptr %4, align 8, !tbaa !9
  %14 = getelementptr inbounds nuw %struct.t_atoms, ptr %13, i32 0, i32 0
  %15 = load i32, ptr %14, align 8, !tbaa !17
  %16 = add nsw i32 %12, %15
  %17 = getelementptr inbounds nuw %"class.gmx::AtomsBuilder", ptr %8, i32 0, i32 2
  %18 = load i32, ptr %17, align 8, !tbaa !26
  %19 = icmp sgt i32 %16, %18
  br i1 %19, label %32, label %20

20:                                               ; preds = %2
  %21 = getelementptr inbounds nuw %"class.gmx::AtomsBuilder", ptr %8, i32 0, i32 0
  %22 = load ptr, ptr %21, align 8, !tbaa !13
  %23 = getelementptr inbounds nuw %struct.t_atoms, ptr %22, i32 0, i32 5
  %24 = load i32, ptr %23, align 8, !tbaa !27
  %25 = load ptr, ptr %4, align 8, !tbaa !9
  %26 = getelementptr inbounds nuw %struct.t_atoms, ptr %25, i32 0, i32 5
  %27 = load i32, ptr %26, align 8, !tbaa !27
  %28 = add nsw i32 %24, %27
  %29 = getelementptr inbounds nuw %"class.gmx::AtomsBuilder", ptr %8, i32 0, i32 3
  %30 = load i32, ptr %29, align 4, !tbaa !28
  %31 = icmp sgt i32 %28, %30
  br i1 %31, label %32, label %49

32:                                               ; preds = %20, %2
  %33 = getelementptr inbounds nuw %"class.gmx::AtomsBuilder", ptr %8, i32 0, i32 0
  %34 = load ptr, ptr %33, align 8, !tbaa !13
  %35 = getelementptr inbounds nuw %struct.t_atoms, ptr %34, i32 0, i32 0
  %36 = load i32, ptr %35, align 8, !tbaa !17
  %37 = load ptr, ptr %4, align 8, !tbaa !9
  %38 = getelementptr inbounds nuw %struct.t_atoms, ptr %37, i32 0, i32 0
  %39 = load i32, ptr %38, align 8, !tbaa !17
  %40 = add nsw i32 %36, %39
  %41 = getelementptr inbounds nuw %"class.gmx::AtomsBuilder", ptr %8, i32 0, i32 0
  %42 = load ptr, ptr %41, align 8, !tbaa !13
  %43 = getelementptr inbounds nuw %struct.t_atoms, ptr %42, i32 0, i32 5
  %44 = load i32, ptr %43, align 8, !tbaa !27
  %45 = load ptr, ptr %4, align 8, !tbaa !9
  %46 = getelementptr inbounds nuw %struct.t_atoms, ptr %45, i32 0, i32 5
  %47 = load i32, ptr %46, align 8, !tbaa !27
  %48 = add nsw i32 %44, %47
  call void @_ZN3gmx12AtomsBuilder7reserveEii(ptr noundef nonnull align 8 dereferenceable(32) %8, i32 noundef %40, i32 noundef %48)
  br label %49

49:                                               ; preds = %32, %20
  call void @llvm.lifetime.start.p0(i64 4, ptr %5) #13
  store i32 -1, ptr %5, align 4, !tbaa !38
  call void @llvm.lifetime.start.p0(i64 4, ptr %6) #13
  store i32 0, ptr %6, align 4, !tbaa !38
  br label %50

50:                                               ; preds = %80, %49
  %51 = load i32, ptr %6, align 4, !tbaa !38
  %52 = load ptr, ptr %4, align 8, !tbaa !9
  %53 = getelementptr inbounds nuw %struct.t_atoms, ptr %52, i32 0, i32 0
  %54 = load i32, ptr %53, align 8, !tbaa !17
  %55 = icmp slt i32 %51, %54
  br i1 %55, label %57, label %56

56:                                               ; preds = %50
  call void @llvm.lifetime.end.p0(i64 4, ptr %6) #13
  br label %83

57:                                               ; preds = %50
  call void @llvm.lifetime.start.p0(i64 4, ptr %7) #13
  %58 = load ptr, ptr %4, align 8, !tbaa !9
  %59 = getelementptr inbounds nuw %struct.t_atoms, ptr %58, i32 0, i32 1
  %60 = load ptr, ptr %59, align 8, !tbaa !55
  %61 = load i32, ptr %6, align 4, !tbaa !38
  %62 = sext i32 %61 to i64
  %63 = getelementptr inbounds %struct.t_atom, ptr %60, i64 %62
  %64 = getelementptr inbounds nuw %struct.t_atom, ptr %63, i32 0, i32 7
  %65 = load i32, ptr %64, align 4, !tbaa !65
  store i32 %65, ptr %7, align 4, !tbaa !38
  %66 = load i32, ptr %7, align 4, !tbaa !38
  %67 = load i32, ptr %5, align 4, !tbaa !38
  %68 = icmp ne i32 %66, %67
  br i1 %68, label %69, label %77

69:                                               ; preds = %57
  %70 = load ptr, ptr %4, align 8, !tbaa !9
  %71 = getelementptr inbounds nuw %struct.t_atoms, ptr %70, i32 0, i32 6
  %72 = load ptr, ptr %71, align 8, !tbaa !31
  %73 = load i32, ptr %7, align 4, !tbaa !38
  %74 = sext i32 %73 to i64
  %75 = getelementptr inbounds %struct.t_resinfo, ptr %72, i64 %74
  call void @_ZN3gmx12AtomsBuilder12startResidueERK9t_resinfo(ptr noundef nonnull align 8 dereferenceable(32) %8, ptr noundef nonnull align 8 dereferenceable(32) %75)
  %76 = load i32, ptr %7, align 4, !tbaa !38
  store i32 %76, ptr %5, align 4, !tbaa !38
  br label %77

77:                                               ; preds = %69, %57
  %78 = load ptr, ptr %4, align 8, !tbaa !9
  %79 = load i32, ptr %6, align 4, !tbaa !38
  call void @_ZN3gmx12AtomsBuilder7addAtomERK7t_atomsi(ptr noundef nonnull align 8 dereferenceable(32) %8, ptr noundef nonnull align 8 dereferenceable(72) %78, i32 noundef %79)
  call void @llvm.lifetime.end.p0(i64 4, ptr %7) #13
  br label %80

80:                                               ; preds = %77
  %81 = load i32, ptr %6, align 4, !tbaa !38
  %82 = add nsw i32 %81, 1
  store i32 %82, ptr %6, align 4, !tbaa !38
  br label %50, !llvm.loop !75

83:                                               ; preds = %56
  call void @llvm.lifetime.end.p0(i64 4, ptr %5) #13
  ret void
}