; Function Attrs: mustprogress uwtable
define void @_ZN3gmx12AtomsBuilder10mergeAtomsERK7t_atoms(ptr noundef nonnull align 8 captures(none) dereferenceable(32) %0, ptr noundef nonnull readonly align 8 captures(none) dereferenceable(72) %1) local_unnamed_addr #2 align 2 {
  %3 = load ptr, ptr %0, align 8, !tbaa !4
  %4 = load i32, ptr %3, align 8, !tbaa !13
  %5 = load i32, ptr %1, align 8, !tbaa !13
  %6 = add nsw i32 %5, %4
  %7 = getelementptr inbounds nuw i8, ptr %0, i64 16
  %8 = load i32, ptr %7, align 8, !tbaa !22
  %9 = icmp sgt i32 %6, %8
  %.phi.trans.insert = getelementptr inbounds nuw i8, ptr %3, i64 40
  %.pre = load i32, ptr %.phi.trans.insert, align 8, !tbaa !23
  %.phi.trans.insert24 = getelementptr inbounds nuw i8, ptr %1, i64 40
  %.pre25 = load i32, ptr %.phi.trans.insert24, align 8, !tbaa !23
  %.pre30 = add nsw i32 %.pre25, %.pre
  %10 = getelementptr inbounds nuw i8, ptr %0, i64 20
  %11 = load i32, ptr %10, align 4
  %12 = icmp sgt i32 %.pre30, %11
  %or.cond = select i1 %9, i1 true, i1 %12
  br i1 %or.cond, label %._crit_edge23, label %13

._crit_edge23:                                    ; preds = %2
  tail call void @_ZN3gmx12AtomsBuilder7reserveEii(ptr noundef nonnull align 8 dereferenceable(32) %0, i32 noundef %6, i32 noundef %.pre30)
  %.pre26 = load i32, ptr %1, align 8, !tbaa !13
  br label %13

13:                                               ; preds = %2, %._crit_edge23
  %14 = phi i32 [ %.pre26, %._crit_edge23 ], [ %5, %2 ]
  %15 = icmp sgt i32 %14, 0
  br i1 %15, label %.lr.ph, label %._crit_edge

.lr.ph:                                           ; preds = %13
  %16 = getelementptr inbounds nuw i8, ptr %1, i64 8
  %17 = getelementptr inbounds nuw i8, ptr %1, i64 48
  %18 = getelementptr inbounds nuw i8, ptr %0, i64 28
  %19 = getelementptr inbounds nuw i8, ptr %0, i64 8
  %20 = getelementptr inbounds nuw i8, ptr %0, i64 24
  %21 = getelementptr inbounds nuw i8, ptr %1, i64 16
  %22 = getelementptr inbounds nuw i8, ptr %1, i64 56
  br label %23

._crit_edge:                                      ; preds = %_ZN3gmx12AtomsBuilder7addAtomERK7t_atomsi.exit, %13
  ret void

23:                                               ; preds = %.lr.ph, %_ZN3gmx12AtomsBuilder7addAtomERK7t_atomsi.exit
  %indvars.iv = phi i64 [ 0, %.lr.ph ], [ %indvars.iv.next, %_ZN3gmx12AtomsBuilder7addAtomERK7t_atomsi.exit ]
  %.021 = phi i32 [ -1, %.lr.ph ], [ %.1, %_ZN3gmx12AtomsBuilder7addAtomERK7t_atomsi.exit ]
  %24 = load ptr, ptr %16, align 8, !tbaa !38
  %25 = getelementptr inbounds nuw %struct.t_atom, ptr %24, i64 %indvars.iv, i32 7
  %26 = load i32, ptr %25, align 4, !tbaa !50
  %.not = icmp eq i32 %26, %.021
  br i1 %.not, label %._crit_edge27, label %27

._crit_edge27:                                    ; preds = %23
  %.pre28 = load ptr, ptr %0, align 8, !tbaa !4
  br label %62

27:                                               ; preds = %23
  %28 = load ptr, ptr %17, align 8, !tbaa !27
  %29 = sext i32 %26 to i64
  %30 = getelementptr inbounds %struct.t_resinfo, ptr %28, i64 %29
  %31 = load i32, ptr %18, align 4, !tbaa !26
  %32 = icmp eq i32 %31, -1
  br i1 %32, label %33, label %36

33:                                               ; preds = %27
  %34 = getelementptr inbounds nuw i8, ptr %30, i64 8
  %35 = load i32, ptr %34, align 8, !tbaa !28
  store i32 %35, ptr %18, align 4, !tbaa !26
  br label %36

36:                                               ; preds = %33, %27
  %37 = load ptr, ptr %0, align 8, !tbaa !4
  %38 = getelementptr inbounds nuw i8, ptr %37, i64 40
  %39 = load i32, ptr %38, align 8, !tbaa !23
  %40 = getelementptr inbounds nuw i8, ptr %37, i64 48
  %41 = load ptr, ptr %40, align 8, !tbaa !27
  %42 = sext i32 %39 to i64
  %43 = getelementptr inbounds %struct.t_resinfo, ptr %41, i64 %42
  tail call void @llvm.memcpy.p0.p0.i64(ptr noundef nonnull align 8 dereferenceable(32) %43, ptr noundef nonnull readonly align 8 dereferenceable(32) %30, i64 32, i1 false), !tbaa.struct !56
  %44 = load i32, ptr %18, align 4, !tbaa !26
  %45 = load ptr, ptr %0, align 8, !tbaa !4
  %46 = getelementptr inbounds nuw i8, ptr %45, i64 48
  %47 = load ptr, ptr %46, align 8, !tbaa !27
  %48 = getelementptr inbounds %struct.t_resinfo, ptr %47, i64 %42, i32 1
  store i32 %44, ptr %48, align 8, !tbaa !28
  %49 = load ptr, ptr %30, align 8, !tbaa !57
  %50 = load ptr, ptr %19, align 8, !tbaa !12
  %.not.i.i = icmp eq ptr %50, null
  br i1 %.not.i.i, label %_ZN3gmx12AtomsBuilder12startResidueERK9t_resinfo.exit, label %51

51:                                               ; preds = %36
  %52 = load ptr, ptr %49, align 8, !tbaa !31
  %53 = tail call noundef ptr @_Z10put_symtabP8t_symtabPKc(ptr noundef nonnull %50, ptr noundef %52)
  %.pre.i = load ptr, ptr %0, align 8, !tbaa !4
  %.phi.trans.insert.i = getelementptr inbounds nuw i8, ptr %.pre.i, i64 48
  %.pre7.i = load ptr, ptr %.phi.trans.insert.i, align 8, !tbaa !27
  %.pre8.i = load i32, ptr %18, align 4, !tbaa !26
  br label %_ZN3gmx12AtomsBuilder12startResidueERK9t_resinfo.exit

_ZN3gmx12AtomsBuilder12startResidueERK9t_resinfo.exit: ; preds = %36, %51
  %54 = phi i32 [ %.pre8.i, %51 ], [ %44, %36 ]
  %55 = phi ptr [ %.pre7.i, %51 ], [ %47, %36 ]
  %56 = phi ptr [ %.pre.i, %51 ], [ %45, %36 ]
  %.0.i.i = phi ptr [ %53, %51 ], [ %49, %36 ]
  %57 = getelementptr inbounds %struct.t_resinfo, ptr %55, i64 %42
  store ptr %.0.i.i, ptr %57, align 8, !tbaa !57
  %58 = add nsw i32 %54, 1
  store i32 %58, ptr %18, align 4, !tbaa !26
  store i32 %39, ptr %20, align 8, !tbaa !25
  %59 = getelementptr inbounds nuw i8, ptr %56, i64 40
  %60 = load i32, ptr %59, align 8, !tbaa !23
  %61 = add nsw i32 %60, 1
  store i32 %61, ptr %59, align 8, !tbaa !23
  %.pre29 = load ptr, ptr %16, align 8, !tbaa !38
  br label %62

62:                                               ; preds = %._crit_edge27, %_ZN3gmx12AtomsBuilder12startResidueERK9t_resinfo.exit
  %63 = phi ptr [ %.pre29, %_ZN3gmx12AtomsBuilder12startResidueERK9t_resinfo.exit ], [ %24, %._crit_edge27 ]
  %64 = phi ptr [ %56, %_ZN3gmx12AtomsBuilder12startResidueERK9t_resinfo.exit ], [ %.pre28, %._crit_edge27 ]
  %.1 = phi i32 [ %26, %_ZN3gmx12AtomsBuilder12startResidueERK9t_resinfo.exit ], [ %.021, %._crit_edge27 ]
  %65 = load i32, ptr %64, align 8, !tbaa !13
  %66 = getelementptr inbounds nuw %struct.t_atom, ptr %63, i64 %indvars.iv
  %67 = getelementptr inbounds nuw i8, ptr %64, i64 8
  %68 = load ptr, ptr %67, align 8, !tbaa !38
  %69 = sext i32 %65 to i64
  %70 = getelementptr inbounds %struct.t_atom, ptr %68, i64 %69
  tail call void @llvm.memcpy.p0.p0.i64(ptr noundef nonnull align 4 dereferenceable(36) %70, ptr noundef nonnull align 4 dereferenceable(36) %66, i64 36, i1 false), !tbaa.struct !39
  %71 = load ptr, ptr %21, align 8, !tbaa !48
  %72 = getelementptr inbounds nuw ptr, ptr %71, i64 %indvars.iv
  %73 = load ptr, ptr %72, align 8, !tbaa !49
  %74 = load ptr, ptr %19, align 8, !tbaa !12
  %.not.i.i18 = icmp eq ptr %74, null
  br i1 %.not.i.i18, label %_ZN3gmx12AtomsBuilder12symtabStringEPPc.exit.i, label %75

75:                                               ; preds = %62
  %76 = load ptr, ptr %73, align 8, !tbaa !31
  %77 = tail call noundef ptr @_Z10put_symtabP8t_symtabPKc(ptr noundef nonnull %74, ptr noundef %76)
  br label %_ZN3gmx12AtomsBuilder12symtabStringEPPc.exit.i

_ZN3gmx12AtomsBuilder12symtabStringEPPc.exit.i:   ; preds = %75, %62
  %.0.i.i19 = phi ptr [ %77, %75 ], [ %73, %62 ]
  %78 = load ptr, ptr %0, align 8, !tbaa !4
  %79 = getelementptr inbounds nuw i8, ptr %78, i64 16
  %80 = load ptr, ptr %79, align 8, !tbaa !48
  %81 = getelementptr inbounds ptr, ptr %80, i64 %69
  store ptr %.0.i.i19, ptr %81, align 8, !tbaa !49
  %82 = load i32, ptr %20, align 8, !tbaa !25
  %83 = getelementptr inbounds nuw i8, ptr %78, i64 8
  %84 = load ptr, ptr %83, align 8, !tbaa !38
  %85 = getelementptr inbounds %struct.t_atom, ptr %84, i64 %69, i32 7
  store i32 %82, ptr %85, align 4, !tbaa !50
  %86 = getelementptr inbounds nuw i8, ptr %78, i64 56
  %87 = load ptr, ptr %86, align 8, !tbaa !36
  %.not.i = icmp eq ptr %87, null
  br i1 %.not.i, label %_ZN3gmx12AtomsBuilder7addAtomERK7t_atomsi.exit, label %88

88:                                               ; preds = %_ZN3gmx12AtomsBuilder12symtabStringEPPc.exit.i
  %89 = load ptr, ptr %22, align 8, !tbaa !36
  %.not13.i = icmp eq ptr %89, null
  br i1 %.not13.i, label %93, label %90

90:                                               ; preds = %88
  %91 = getelementptr inbounds nuw %struct.t_pdbinfo, ptr %89, i64 %indvars.iv
  %92 = getelementptr inbounds %struct.t_pdbinfo, ptr %87, i64 %69
  tail call void @llvm.memcpy.p0.p0.i64(ptr noundef nonnull align 4 dereferenceable(52) %92, ptr noundef nonnull align 4 dereferenceable(52) %91, i64 52, i1 false), !tbaa.struct !52
  br label %_ZN3gmx12AtomsBuilder7addAtomERK7t_atomsi.exit

93:                                               ; preds = %88
  %94 = getelementptr inbounds %struct.t_pdbinfo, ptr %87, i64 %69
  tail call void @_Z24gmx_pdbinfo_init_defaultP9t_pdbinfo(ptr noundef nonnull %94)
  br label %_ZN3gmx12AtomsBuilder7addAtomERK7t_atomsi.exit

_ZN3gmx12AtomsBuilder7addAtomERK7t_atomsi.exit:   ; preds = %_ZN3gmx12AtomsBuilder12symtabStringEPPc.exit.i, %90, %93
  %95 = load ptr, ptr %0, align 8, !tbaa !4
  %96 = load i32, ptr %95, align 8, !tbaa !13
  %97 = add nsw i32 %96, 1
  store i32 %97, ptr %95, align 8, !tbaa !13
  %indvars.iv.next = add nuw nsw i64 %indvars.iv, 1
  %98 = load i32, ptr %1, align 8, !tbaa !13
  %99 = sext i32 %98 to i64
  %100 = icmp slt i64 %indvars.iv.next, %99
  br i1 %100, label %23, label %._crit_edge, !llvm.loop !60
}